; ModuleID = '47/1739.c'
source_filename = "47/1739.c"
target datalayout = "e-m:e-p270:32:32-p271:32:32-p272:64:64-i64:64-f80:128-n8:16:32:64-S128"
target triple = "x86_64-pc-linux-gnu"

@.str = private unnamed_addr constant [3 x i8] c"%d\00", align 1
@.str.1 = private unnamed_addr constant [4 x i8] c" %d\00", align 1
@.str.2 = private unnamed_addr constant [2 x i8] c"\0A\00", align 1

; Function Attrs: noinline nounwind uwtable
define dso_local i32 @main() #0 {
  %1 = alloca i32, align 4
  %2 = alloca [100 x i32], align 16
  %3 = alloca i32*, align 8
  %4 = alloca i32, align 4
  %5 = alloca i32, align 4
  %6 = alloca i32, align 4
  store i32 0, i32* %1, align 4
  %7 = getelementptr inbounds [100 x i32], [100 x i32]* %2, i64 0, i64 0
  store i32* %7, i32** %3, align 8
  %8 = call i32 (i8*, ...) @__isoc99_scanf(i8* getelementptr inbounds ([3 x i8], [3 x i8]* @.str, i64 0, i64 0), i32* %4)
  store i32 0, i32* %5, align 4
  br label %9

9:                                                ; preds = %19, %0
  %10 = load i32, i32* %5, align 4
  %11 = load i32, i32* %4, align 4
  %12 = icmp slt i32 %10, %11
  br i1 %12, label %13, label %22

13:                                               ; preds = %9
  %14 = load i32*, i32** %3, align 8
  %15 = load i32, i32* %5, align 4
  %16 = sext i32 %15 to i64
  %17 = getelementptr inbounds i32, i32* %14, i64 %16
  %18 = call i32 (i8*, ...) @__isoc99_scanf(i8* getelementptr inbounds ([3 x i8], [3 x i8]* @.str, i64 0, i64 0), i32* %17)
  br label %19

19:                                               ; preds = %13
  %20 = load i32, i32* %5, align 4
  %21 = add nsw i32 %20, 1
  store i32 %21, i32* %5, align 4
  br label %9

22:                                               ; preds = %9
  %23 = load i32, i32* %4, align 4
  %24 = icmp eq i32 %23, 1
  br i1 %24, label %25, label %29

25:                                               ; preds = %22
  %26 = load i32*, i32** %3, align 8
  %27 = load i32, i32* %26, align 4
  %28 = call i32 (i8*, ...) @printf(i8* getelementptr inbounds ([3 x i8], [3 x i8]* @.str, i64 0, i64 0), i32 %27)
  br label %88

29:                                               ; preds = %22
  store i32 0, i32* %5, align 4
  br label %30

30:                                               ; preds = %66, %29
  %31 = load i32, i32* %5, align 4
  %32 = load i32, i32* %4, align 4
  %33 = sub nsw i32 %32, 1
  %34 = sdiv i32 %33, 2
  %35 = icmp sle i32 %31, %34
  br i1 %35, label %36, label %69

36:                                               ; preds = %30
  %37 = load i32*, i32** %3, align 8
  %38 = load i32, i32* %5, align 4
  %39 = sext i32 %38 to i64
  %40 = getelementptr inbounds i32, i32* %37, i64 %39
  %41 = load i32, i32* %40, align 4
  store i32 %41, i32* %6, align 4
  %42 = load i32*, i32** %3, align 8
  %43 = load i32, i32* %4, align 4
  %44 = sext i32 %43 to i64
  %45 = getelementptr inbounds i32, i32* %42, i64 %44
  %46 = getelementptr inbounds i32, i32* %45, i64 -1
  %47 = load i32, i32* %5, align 4
  %48 = sext i32 %47 to i64
  %49 = sub i64 0, %48
  %50 = getelementptr inbounds i32, i32* %46, i64 %49
  %51 = load i32, i32* %50, align 4
  %52 = load i32*, i32** %3, align 8
  %53 = load i32, i32* %5, align 4
  %54 = sext i32 %53 to i64
  %55 = getelementptr inbounds i32, i32* %52, i64 %54
  store i32 %51, i32* %55, align 4
  %56 = load i32, i32* %6, align 4
  %57 = load i32*, i32** %3, align 8
  %58 = load i32, i32* %4, align 4
  %59 = sext i32 %58 to i64
  %60 = getelementptr inbounds i32, i32* %57, i64 %59
  %61 = getelementptr inbounds i32, i32* %60, i64 -1
  %62 = load i32, i32* %5, align 4
  %63 = sext i32 %62 to i64
  %64 = sub i64 0, %63
  %65 = getelementptr inbounds i32, i32* %61, i64 %64
  store i32 %56, i32* %65, align 4
  br label %66

66:                                               ; preds = %36
  %67 = load i32, i32* %5, align 4
  %68 = add nsw i32 %67, 1
  store i32 %68, i32* %5, align 4
  br label %30

69:                                               ; preds = %30
  %70 = load i32*, i32** %3, align 8
  %71 = load i32, i32* %70, align 4
  %72 = call i32 (i8*, ...) @printf(i8* getelementptr inbounds ([3 x i8], [3 x i8]* @.str, i64 0, i64 0), i32 %71)
  store i32 1, i32* %5, align 4
  br label %73

73:                                               ; preds = %84, %69
  %74 = load i32, i32* %5, align 4
  %75 = load i32, i32* %4, align 4
  %76 = icmp slt i32 %74, %75
  br i1 %76, label %77, label %87

77:                                               ; preds = %73
  %78 = load i32*, i32** %3, align 8
  %79 = load i32, i32* %5, align 4
  %80 = sext i32 %79 to i64
  %81 = getelementptr inbounds i32, i32* %78, i64 %80
  %82 = load i32, i32* %81, align 4
  %83 = call i32 (i8*, ...) @printf(i8* getelementptr inbounds ([4 x i8], [4 x i8]* @.str.1, i64 0, i64 0), i32 %82)
  br label %84

84:                                               ; preds = %77
  %85 = load i32, i32* %5, align 4
  %86 = add nsw i32 %85, 1
  store i32 %86, i32* %5, align 4
  br label %73

87:                                               ; preds = %73
  br label %88

88:                                               ; preds = %87, %25
  %89 = call i32 (i8*, ...) @printf(i8* getelementptr inbounds ([2 x i8], [2 x i8]* @.str.2, i64 0, i64 0))
  ret i32 0
}

declare dso_local i32 @__isoc99_scanf(i8*, ...) #1

declare dso_local i32 @printf(i8*, ...) #1


!llvm.module.flags = !{!0}
!llvm.ident = !{!1}

!0 = !{i32 1, !"wchar_size", i32 4}
!1 = !{!"clang version 10.0.0-4ubuntu1 "}
